; Function Attrs: mustprogress uwtable
define void @_ZN11Point3Value3setERK5Value(ptr nocapture noundef nonnull writeonly align 8 dereferenceable(20) %0, ptr noundef nonnull align 8 dereferenceable(8) %1) unnamed_addr #4 align 2 {
  %3 = load ptr, ptr %1, align 8
  %4 = getelementptr inbounds i8, ptr %3, i64 56
  %5 = load ptr, ptr %4, align 8
  %6 = tail call { <2 x float>, float } %5(ptr noundef nonnull align 8 dereferenceable(8) %1)
  %.fca.0.extract = extractvalue { <2 x float>, float } %6, 0
  %.fca.1.extract = extractvalue { <2 x float>, float } %6, 1
  %7 = getelementptr inbounds i8, ptr %0, i64 8
  store <2 x float> %.fca.0.extract, ptr %7, align 8
  %.sroa.22.0..sroa_idx = getelementptr inbounds i8, ptr %0, i64 16
  store float %.fca.1.extract, ptr %.sroa.22.0..sroa_idx, align 8
  ret void
}